target datalayout = "e-m:e-p270:32:32-p271:32:32-p272:64:64-i64:64-i128:128-f80:128-n8:16:32:64-S128"
target triple = "x86_64-pc-linux-gnu"

%struct.pointf_s = type { double, double }
%struct.Agobj_s = type { %struct.Agtag_s, ptr }
%struct.Agtag_s = type { i32, i64 }
%struct.Agnodeinfo_t = type { %struct.Agrec_s, ptr, ptr, %struct.pointf_s, double, double, %struct.boxf, double, double, double, double, double, ptr, ptr, ptr, i8, i8, i8, i8, i32, i32, i32, ptr, double, i8, i8, ptr, ptr, i8, i64, i8, i8, i8, ptr, ptr, %struct.elist, %struct.elist, %struct.elist, %struct.elist, %struct.elist, ptr, i32, ptr, i32, i32, double, %struct.elist, %struct.elist, %struct.elist, %struct.elist, ptr, i32, i32, i32, [1 x double] }
%struct.Agrec_s = type { ptr, ptr }
%struct.boxf = type { %struct.pointf_s, %struct.pointf_s }
%struct.elist = type { ptr, i64 }
%struct.adjust_data = type { i32, ptr, i32, double }
%struct.expand_t = type { double, double, i8 }
%struct.SparseMatrix_struct = type { i32, i32, i32, i32, i32, ptr, ptr, ptr, i32, i8, i64 }

@Ndim = external global i16, align 2
@stderr = external global ptr, align 8
@.str.11 = private unnamed_addr constant [58 x i8] c"integer overflow when trying to allocate %zu * %zu bytes\0A\00", align 1
@.str.12 = private unnamed_addr constant [49 x i8] c"out of memory when trying to allocate %zu bytes\0A\00", align 1
@.str.49 = private unnamed_addr constant [15 x i8] c"overlap_shrink\00", align 1

; Function Attrs: inlinehint nounwind uwtable
define internal ptr @gv_calloc(i64 noundef %0, i64 noundef %1) #2 {
  %3 = alloca i64, align 8
  %4 = alloca i64, align 8
  %5 = alloca ptr, align 8
  store i64 %0, ptr %3, align 8, !tbaa !46
  store i64 %1, ptr %4, align 8, !tbaa !46
  %6 = load i64, ptr %3, align 8, !tbaa !46
  %7 = icmp ugt i64 %6, 0
  br i1 %7, label %8, label %18

8:                                                ; preds = %2
  %9 = load i64, ptr %3, align 8, !tbaa !46
  %10 = udiv i64 -1, %9
  %11 = load i64, ptr %4, align 8, !tbaa !46
  %12 = icmp ult i64 %10, %11
  br i1 %12, label %13, label %18

13:                                               ; preds = %8
  %14 = load ptr, ptr @stderr, align 8, !tbaa !47
  %15 = load i64, ptr %3, align 8, !tbaa !46
  %16 = load i64, ptr %4, align 8, !tbaa !46
  %17 = call i32 (ptr, ptr, ...) @fprintf(ptr noundef %14, ptr noundef @.str.11, i64 noundef %15, i64 noundef %16) #13
  call void @graphviz_exit(i32 noundef 1) #14
  unreachable

18:                                               ; preds = %8, %2
  call void @llvm.lifetime.start.p0(i64 8, ptr %5) #13
  %19 = load i64, ptr %3, align 8, !tbaa !46
  %20 = load i64, ptr %4, align 8, !tbaa !46
  %21 = call noalias ptr @calloc(i64 noundef %19, i64 noundef %20) #15
  store ptr %21, ptr %5, align 8, !tbaa !49
  %22 = load i64, ptr %3, align 8, !tbaa !46
  %23 = icmp ugt i64 %22, 0
  br i1 %23, label %24, label %36

24:                                               ; preds = %18
  %25 = load i64, ptr %4, align 8, !tbaa !46
  %26 = icmp ugt i64 %25, 0
  br i1 %26, label %27, label %36

27:                                               ; preds = %24
  %28 = load ptr, ptr %5, align 8, !tbaa !49
  %29 = icmp eq ptr %28, null
  br i1 %29, label %30, label %36

30:                                               ; preds = %27
  %31 = load ptr, ptr @stderr, align 8, !tbaa !47
  %32 = load i64, ptr %3, align 8, !tbaa !46
  %33 = load i64, ptr %4, align 8, !tbaa !46
  %34 = mul i64 %32, %33
  %35 = call i32 (ptr, ptr, ...) @fprintf(ptr noundef %31, ptr noundef @.str.12, i64 noundef %34) #13
  call void @graphviz_exit(i32 noundef 1) #14
  unreachable

36:                                               ; preds = %27, %24, %18
  %37 = load ptr, ptr %5, align 8, !tbaa !49
  call void @llvm.lifetime.end.p0(i64 8, ptr %5) #13
  ret ptr %37
}

; Function Attrs: nounwind uwtable
define internal void @fdpAdjust(ptr noundef %0, ptr noundef %1) #0 {
  %3 = alloca ptr, align 8
  %4 = alloca ptr, align 8
  %5 = alloca ptr, align 8
  %6 = alloca ptr, align 8
  %7 = alloca ptr, align 8
  %8 = alloca %struct.expand_t, align 8
  %9 = alloca %struct.pointf_s, align 8
  %10 = alloca ptr, align 8
  %11 = alloca ptr, align 8
  %12 = alloca i32, align 4
  %13 = alloca ptr, align 8
  %14 = alloca i32, align 4
  %15 = alloca ptr, align 8
  %16 = alloca ptr, align 8
  %17 = alloca i32, align 4
  store ptr %0, ptr %3, align 8, !tbaa !3
  store ptr %1, ptr %4, align 8, !tbaa !49
  call void @llvm.lifetime.start.p0(i64 8, ptr %5) #13
  %18 = load ptr, ptr %3, align 8, !tbaa !3
  %19 = call ptr @makeMatrix(ptr noundef %18)
  store ptr %19, ptr %5, align 8, !tbaa !61
  call void @llvm.lifetime.start.p0(i64 8, ptr %6) #13
  %20 = load ptr, ptr %5, align 8, !tbaa !61
  store ptr %20, ptr %6, align 8, !tbaa !61
  call void @llvm.lifetime.start.p0(i64 8, ptr %7) #13
  %21 = load i16, ptr @Ndim, align 2, !tbaa !12
  %22 = zext i16 %21 to i32
  %23 = load ptr, ptr %3, align 8, !tbaa !3
  %24 = call i32 @agnnodes(ptr noundef %23)
  %25 = mul nsw i32 %22, %24
  %26 = sext i32 %25 to i64
  %27 = call ptr @gv_calloc(i64 noundef %26, i64 noundef 8)
  store ptr %27, ptr %7, align 8, !tbaa !14
  call void @llvm.lifetime.start.p0(i64 24, ptr %8) #13
  %28 = load ptr, ptr %3, align 8, !tbaa !3
  call void @sepFactor(ptr dead_on_unwind writable sret(%struct.expand_t) align 8 %8, ptr noundef %28)
  call void @llvm.lifetime.start.p0(i64 16, ptr %9) #13
  %29 = getelementptr inbounds nuw %struct.expand_t, ptr %8, i32 0, i32 2
  %30 = load i8, ptr %29, align 8, !tbaa !87, !range !78, !noundef !79
  %31 = trunc i8 %30 to i1
  br i1 %31, label %32, label %41

32:                                               ; preds = %2
  %33 = getelementptr inbounds nuw %struct.expand_t, ptr %8, i32 0, i32 0
  %34 = load double, ptr %33, align 8, !tbaa !89
  %35 = fdiv double %34, 7.200000e+01
  %36 = getelementptr inbounds nuw %struct.pointf_s, ptr %9, i32 0, i32 0
  store double %35, ptr %36, align 8, !tbaa !39
  %37 = getelementptr inbounds nuw %struct.expand_t, ptr %8, i32 0, i32 1
  %38 = load double, ptr %37, align 8, !tbaa !90
  %39 = fdiv double %38, 7.200000e+01
  %40 = getelementptr inbounds nuw %struct.pointf_s, ptr %9, i32 0, i32 1
  store double %39, ptr %40, align 8, !tbaa !42
  br label %44

41:                                               ; preds = %2
  %42 = getelementptr inbounds nuw %struct.pointf_s, ptr %9, i32 0, i32 0
  store double 0x3FAC71C71C71C71C, ptr %42, align 8, !tbaa !39
  %43 = getelementptr inbounds nuw %struct.pointf_s, ptr %9, i32 0, i32 1
  store double 0x3FAC71C71C71C71C, ptr %43, align 8, !tbaa !42
  br label %44

44:                                               ; preds = %41, %32
  call void @llvm.lifetime.start.p0(i64 8, ptr %10) #13
  %45 = load ptr, ptr %3, align 8, !tbaa !3
  %46 = getelementptr inbounds nuw { double, double }, ptr %9, i32 0, i32 0
  %47 = load double, ptr %46, align 8
  %48 = getelementptr inbounds nuw { double, double }, ptr %9, i32 0, i32 1
  %49 = load double, ptr %48, align 8
  %50 = call ptr @getSizes(ptr noundef %45, double %47, double %49, ptr noundef null, ptr noundef null)
  store ptr %50, ptr %10, align 8, !tbaa !14
  call void @llvm.lifetime.start.p0(i64 8, ptr %11) #13
  %51 = load ptr, ptr %3, align 8, !tbaa !3
  %52 = call ptr @agfstnode(ptr noundef %51)
  store ptr %52, ptr %11, align 8, !tbaa !18
  br label %53

53:                                               ; preds = %93, %44
  %54 = load ptr, ptr %11, align 8, !tbaa !18
  %55 = icmp ne ptr %54, null
  br i1 %55, label %57, label %56

56:                                               ; preds = %53
  store i32 2, ptr %12, align 4
  call void @llvm.lifetime.end.p0(i64 8, ptr %11) #13
  br label %97

57:                                               ; preds = %53
  call void @llvm.lifetime.start.p0(i64 8, ptr %13) #13
  %58 = load ptr, ptr %7, align 8, !tbaa !14
  %59 = load i16, ptr @Ndim, align 2, !tbaa !12
  %60 = zext i16 %59 to i32
  %61 = load ptr, ptr %11, align 8, !tbaa !18
  %62 = getelementptr inbounds nuw %struct.Agobj_s, ptr %61, i32 0, i32 1
  %63 = load ptr, ptr %62, align 8, !tbaa !20
  %64 = getelementptr inbounds nuw %struct.Agnodeinfo_t, ptr %63, i32 0, i32 19
  %65 = load i32, ptr %64, align 4, !tbaa !25
  %66 = mul nsw i32 %60, %65
  %67 = sext i32 %66 to i64
  %68 = getelementptr inbounds double, ptr %58, i64 %67
  store ptr %68, ptr %13, align 8, !tbaa !14
  call void @llvm.lifetime.start.p0(i64 4, ptr %14) #13
  store i32 0, ptr %14, align 4, !tbaa !16
  br label %69

69:                                               ; preds = %89, %57
  %70 = load i32, ptr %14, align 4, !tbaa !16
  %71 = load i16, ptr @Ndim, align 2, !tbaa !12
  %72 = zext i16 %71 to i32
  %73 = icmp slt i32 %70, %72
  br i1 %73, label %75, label %74

74:                                               ; preds = %69
  store i32 5, ptr %12, align 4
  call void @llvm.lifetime.end.p0(i64 4, ptr %14) #13
  br label %92

75:                                               ; preds = %69
  %76 = load ptr, ptr %11, align 8, !tbaa !18
  %77 = getelementptr inbounds nuw %struct.Agobj_s, ptr %76, i32 0, i32 1
  %78 = load ptr, ptr %77, align 8, !tbaa !20
  %79 = getelementptr inbounds nuw %struct.Agnodeinfo_t, ptr %78, i32 0, i32 22
  %80 = load ptr, ptr %79, align 8, !tbaa !63
  %81 = load i32, ptr %14, align 4, !tbaa !16
  %82 = sext i32 %81 to i64
  %83 = getelementptr inbounds double, ptr %80, i64 %82
  %84 = load double, ptr %83, align 8, !tbaa !40
  %85 = load ptr, ptr %13, align 8, !tbaa !14
  %86 = load i32, ptr %14, align 4, !tbaa !16
  %87 = sext i32 %86 to i64
  %88 = getelementptr inbounds double, ptr %85, i64 %87
  store double %84, ptr %88, align 8, !tbaa !40
  br label %89

89:                                               ; preds = %75
  %90 = load i32, ptr %14, align 4, !tbaa !16
  %91 = add nsw i32 %90, 1
  store i32 %91, ptr %14, align 4, !tbaa !16
  br label %69, !llvm.loop !91

92:                                               ; preds = %74
  call void @llvm.lifetime.end.p0(i64 8, ptr %13) #13
  br label %93

93:                                               ; preds = %92
  %94 = load ptr, ptr %3, align 8, !tbaa !3
  %95 = load ptr, ptr %11, align 8, !tbaa !18
  %96 = call ptr @agnxtnode(ptr noundef %94, ptr noundef %95)
  store ptr %96, ptr %11, align 8, !tbaa !18
  br label %53, !llvm.loop !92

97:                                               ; preds = %56
  %98 = load ptr, ptr %6, align 8, !tbaa !61
  %99 = call zeroext i1 @SparseMatrix_is_symmetric(ptr noundef %98, i1 noundef zeroext false)
  br i1 %99, label %100, label %105

100:                                              ; preds = %97
  %101 = load ptr, ptr %6, align 8, !tbaa !61
  %102 = getelementptr inbounds nuw %struct.SparseMatrix_struct, ptr %101, i32 0, i32 4
  %103 = load i32, ptr %102, align 8, !tbaa !93
  %104 = icmp ne i32 %103, 1
  br i1 %104, label %105, label %108

105:                                              ; preds = %100, %97
  %106 = load ptr, ptr %6, align 8, !tbaa !61
  %107 = call ptr @SparseMatrix_get_real_adjacency_matrix_symmetrized(ptr noundef %106)
  store ptr %107, ptr %6, align 8, !tbaa !61
  br label %111

108:                                              ; preds = %100
  %109 = load ptr, ptr %6, align 8, !tbaa !61
  %110 = call ptr @SparseMatrix_remove_diagonal(ptr noundef %109)
  store ptr %110, ptr %6, align 8, !tbaa !61
  br label %111

111:                                              ; preds = %108, %105
  %112 = load i16, ptr @Ndim, align 2, !tbaa !12
  %113 = zext i16 %112 to i32
  %114 = load ptr, ptr %6, align 8, !tbaa !61
  %115 = load ptr, ptr %7, align 8, !tbaa !14
  %116 = load ptr, ptr %10, align 8, !tbaa !14
  %117 = load ptr, ptr %4, align 8, !tbaa !49
  %118 = getelementptr inbounds nuw %struct.adjust_data, ptr %117, i32 0, i32 2
  %119 = load i32, ptr %118, align 8, !tbaa !81
  %120 = load ptr, ptr %4, align 8, !tbaa !49
  %121 = getelementptr inbounds nuw %struct.adjust_data, ptr %120, i32 0, i32 3
  %122 = load double, ptr %121, align 8, !tbaa !82
  %123 = load ptr, ptr %3, align 8, !tbaa !3
  %124 = call ptr @agget(ptr noundef %123, ptr noundef @.str.49)
  %125 = call zeroext i1 @mapBool(ptr noundef %124, i1 noundef zeroext true)
  call void @remove_overlap(i32 noundef %113, ptr noundef %114, ptr noundef %115, ptr noundef %116, i32 noundef %119, double noundef %122, i32 noundef 0, i32 noundef 0, ptr noundef null, ptr noundef null, i1 noundef zeroext %125)
  call void @llvm.lifetime.start.p0(i64 8, ptr %15) #13
  %126 = load ptr, ptr %3, align 8, !tbaa !3
  %127 = call ptr @agfstnode(ptr noundef %126)
  store ptr %127, ptr %15, align 8, !tbaa !18
  br label %128

128:                                              ; preds = %168, %111
  %129 = load ptr, ptr %15, align 8, !tbaa !18
  %130 = icmp ne ptr %129, null
  br i1 %130, label %132, label %131

131:                                              ; preds = %128
  store i32 8, ptr %12, align 4
  call void @llvm.lifetime.end.p0(i64 8, ptr %15) #13
  br label %172

132:                                              ; preds = %128
  call void @llvm.lifetime.start.p0(i64 8, ptr %16) #13
  %133 = load ptr, ptr %7, align 8, !tbaa !14
  %134 = load i16, ptr @Ndim, align 2, !tbaa !12
  %135 = zext i16 %134 to i32
  %136 = load ptr, ptr %15, align 8, !tbaa !18
  %137 = getelementptr inbounds nuw %struct.Agobj_s, ptr %136, i32 0, i32 1
  %138 = load ptr, ptr %137, align 8, !tbaa !20
  %139 = getelementptr inbounds nuw %struct.Agnodeinfo_t, ptr %138, i32 0, i32 19
  %140 = load i32, ptr %139, align 4, !tbaa !25
  %141 = mul nsw i32 %135, %140
  %142 = sext i32 %141 to i64
  %143 = getelementptr inbounds double, ptr %133, i64 %142
  store ptr %143, ptr %16, align 8, !tbaa !14
  call void @llvm.lifetime.start.p0(i64 4, ptr %17) #13
  store i32 0, ptr %17, align 4, !tbaa !16
  br label %144

144:                                              ; preds = %164, %132
  %145 = load i32, ptr %17, align 4, !tbaa !16
  %146 = load i16, ptr @Ndim, align 2, !tbaa !12
  %147 = zext i16 %146 to i32
  %148 = icmp slt i32 %145, %147
  br i1 %148, label %150, label %149

149:                                              ; preds = %144
  store i32 11, ptr %12, align 4
  call void @llvm.lifetime.end.p0(i64 4, ptr %17) #13
  br label %167

150:                                              ; preds = %144
  %151 = load ptr, ptr %16, align 8, !tbaa !14
  %152 = load i32, ptr %17, align 4, !tbaa !16
  %153 = sext i32 %152 to i64
  %154 = getelementptr inbounds double, ptr %151, i64 %153
  %155 = load double, ptr %154, align 8, !tbaa !40
  %156 = load ptr, ptr %15, align 8, !tbaa !18
  %157 = getelementptr inbounds nuw %struct.Agobj_s, ptr %156, i32 0, i32 1
  %158 = load ptr, ptr %157, align 8, !tbaa !20
  %159 = getelementptr inbounds nuw %struct.Agnodeinfo_t, ptr %158, i32 0, i32 22
  %160 = load ptr, ptr %159, align 8, !tbaa !63
  %161 = load i32, ptr %17, align 4, !tbaa !16
  %162 = sext i32 %161 to i64
  %163 = getelementptr inbounds double, ptr %160, i64 %162
  store double %155, ptr %163, align 8, !tbaa !40
  br label %164

164:                                              ; preds = %150
  %165 = load i32, ptr %17, align 4, !tbaa !16
  %166 = add nsw i32 %165, 1
  store i32 %166, ptr %17, align 4, !tbaa !16
  br label %144, !llvm.loop !95

167:                                              ; preds = %149
  call void @llvm.lifetime.end.p0(i64 8, ptr %16) #13
  br label %168

168:                                              ; preds = %167
  %169 = load ptr, ptr %3, align 8, !tbaa !3
  %170 = load ptr, ptr %15, align 8, !tbaa !18
  %171 = call ptr @agnxtnode(ptr noundef %169, ptr noundef %170)
  store ptr %171, ptr %15, align 8, !tbaa !18
  br label %128, !llvm.loop !96

172:                                              ; preds = %131
  %173 = load ptr, ptr %10, align 8, !tbaa !14
  call void @free(ptr noundef %173) #13
  %174 = load ptr, ptr %7, align 8, !tbaa !14
  call void @free(ptr noundef %174) #13
  %175 = load ptr, ptr %6, align 8, !tbaa !61
  %176 = load ptr, ptr %5, align 8, !tbaa !61
  %177 = icmp ne ptr %175, %176
  br i1 %177, label %178, label %180

178:                                              ; preds = %172
  %179 = load ptr, ptr %6, align 8, !tbaa !61
  call void @SparseMatrix_delete(ptr noundef %179)
  br label %180

180:                                              ; preds = %178, %172
  %181 = load ptr, ptr %5, align 8, !tbaa !61
  call void @SparseMatrix_delete(ptr noundef %181)
  call void @llvm.lifetime.end.p0(i64 8, ptr %10) #13
  call void @llvm.lifetime.end.p0(i64 16, ptr %9) #13
  call void @llvm.lifetime.end.p0(i64 24, ptr %8) #13
  call void @llvm.lifetime.end.p0(i64 8, ptr %7) #13
  call void @llvm.lifetime.end.p0(i64 8, ptr %6) #13
  call void @llvm.lifetime.end.p0(i64 8, ptr %5) #13
  ret void
}