; Function Attrs: nounwind uwtable
define internal fastcc void @fdpAdjust(ptr noundef %0, ptr noundef readonly captures(none) %1) unnamed_addr #0 {
  %3 = alloca %struct.expand_t, align 8
  %4 = tail call ptr @makeMatrix(ptr noundef %0)
  %5 = load i16, ptr @Ndim, align 2, !tbaa !3
  %6 = zext i16 %5 to i32
  %7 = tail call i32 @agnnodes(ptr noundef %0) #20
  %8 = mul nsw i32 %7, %6
  %9 = sext i32 %8 to i64
  %.not.i = icmp eq i32 %8, 0
  br i1 %.not.i, label %.thread.i, label %11

.thread.i:                                        ; preds = %2
  %10 = tail call noalias ptr @calloc(i64 noundef 0, i64 noundef 8) #21
  br label %gv_calloc.exit

11:                                               ; preds = %2
  %mul.ov.i = icmp slt i32 %8, 0
  br i1 %mul.ov.i, label %12, label %15

12:                                               ; preds = %11
  %13 = load ptr, ptr @stderr, align 8, !tbaa !7
  %14 = tail call i32 (ptr, ptr, ...) @fprintf(ptr noundef %13, ptr noundef nonnull @.str.11, i64 noundef %9, i64 noundef 8) #22
  tail call fastcc void @graphviz_exit() #23
  unreachable

15:                                               ; preds = %11
  %16 = tail call noalias ptr @calloc(i64 noundef %9, i64 noundef 8) #21
  %17 = icmp eq ptr %16, null
  br i1 %17, label %18, label %gv_calloc.exit

18:                                               ; preds = %15
  %19 = load ptr, ptr @stderr, align 8, !tbaa !7
  %20 = shl nuw nsw i64 %9, 3
  %21 = tail call i32 (ptr, ptr, ...) @fprintf(ptr noundef %19, ptr noundef nonnull @.str.12, i64 noundef %20) #22
  tail call fastcc void @graphviz_exit() #23
  unreachable

gv_calloc.exit:                                   ; preds = %.thread.i, %15
  %22 = phi ptr [ %10, %.thread.i ], [ %16, %15 ]
  call void @llvm.lifetime.start.p0(i64 24, ptr nonnull %3) #20
  call void @sepFactor(ptr dead_on_unwind nonnull writable sret(%struct.expand_t) align 8 %3, ptr noundef %0)
  %23 = getelementptr inbounds nuw i8, ptr %3, i64 16
  %24 = load i8, ptr %23, align 8, !tbaa !70, !range !72, !noundef !73
  %25 = trunc nuw i8 %24 to i1
  %26 = load double, ptr %3, align 8
  %27 = fdiv double %26, 7.200000e+01
  %28 = getelementptr inbounds nuw i8, ptr %3, i64 8
  %29 = load double, ptr %28, align 8
  %30 = fdiv double %29, 7.200000e+01
  %.sroa.0.0 = select i1 %25, double %27, double 0x3FAC71C71C71C71C
  %.sroa.5.0 = select i1 %25, double %30, double 0x3FAC71C71C71C71C
  %31 = tail call ptr @getSizes(ptr noundef %0, double %.sroa.0.0, double %.sroa.5.0, ptr noundef null, ptr noundef null)
  %32 = tail call ptr @agfstnode(ptr noundef %0) #20
  %.not52 = icmp eq ptr %32, null
  br i1 %.not52, label %._crit_edge55, label %.lr.ph54

._crit_edge55:                                    ; preds = %._crit_edge, %gv_calloc.exit
  %33 = tail call zeroext i1 @SparseMatrix_is_symmetric(ptr noundef %4, i1 noundef zeroext false) #20
  br i1 %33, label %50, label %53

.lr.ph54:                                         ; preds = %gv_calloc.exit, %._crit_edge
  %.04753 = phi ptr [ %45, %._crit_edge ], [ %32, %gv_calloc.exit ]
  %34 = load i16, ptr @Ndim, align 2, !tbaa !3
  %35 = zext i16 %34 to i32
  %36 = getelementptr inbounds nuw i8, ptr %.04753, i64 16
  %37 = load ptr, ptr %36, align 8, !tbaa !10
  %38 = getelementptr inbounds nuw i8, ptr %37, i64 164
  %39 = load i32, ptr %38, align 4, !tbaa !16
  %40 = mul nsw i32 %39, %35
  %41 = sext i32 %40 to i64
  %42 = getelementptr inbounds double, ptr %22, i64 %41
  %.not65 = icmp eq i16 %34, 0
  br i1 %.not65, label %._crit_edge, label %.lr.ph

.lr.ph:                                           ; preds = %.lr.ph54
  %43 = getelementptr inbounds nuw i8, ptr %37, i64 176
  %44 = load ptr, ptr %43, align 8, !tbaa !52
  %wide.trip.count = zext i16 %34 to i64
  br label %46

._crit_edge:                                      ; preds = %46, %.lr.ph54
  %45 = tail call ptr @agnxtnode(ptr noundef %0, ptr noundef nonnull %.04753) #20
  %.not = icmp eq ptr %45, null
  br i1 %.not, label %._crit_edge55, label %.lr.ph54, !llvm.loop !123

46:                                               ; preds = %.lr.ph, %46
  %indvars.iv = phi i64 [ 0, %.lr.ph ], [ %indvars.iv.next, %46 ]
  %47 = getelementptr inbounds nuw double, ptr %44, i64 %indvars.iv
  %48 = load double, ptr %47, align 8, !tbaa !33
  %49 = getelementptr inbounds nuw double, ptr %42, i64 %indvars.iv
  store double %48, ptr %49, align 8, !tbaa !33
  %indvars.iv.next = add nuw nsw i64 %indvars.iv, 1
  %exitcond.not = icmp eq i64 %indvars.iv.next, %wide.trip.count
  br i1 %exitcond.not, label %._crit_edge, label %46, !llvm.loop !124

50:                                               ; preds = %._crit_edge55
  %51 = getelementptr inbounds nuw i8, ptr %4, i64 16
  %52 = load i32, ptr %51, align 8, !tbaa !125
  %.not48 = icmp eq i32 %52, 1
  br i1 %.not48, label %55, label %53

53:                                               ; preds = %50, %._crit_edge55
  %54 = tail call ptr @SparseMatrix_get_real_adjacency_matrix_symmetrized(ptr noundef %4) #20
  br label %57

55:                                               ; preds = %50
  %56 = tail call ptr @SparseMatrix_remove_diagonal(ptr noundef nonnull %4) #20
  br label %57

57:                                               ; preds = %55, %53
  %.044 = phi ptr [ %54, %53 ], [ %56, %55 ]
  %58 = load i16, ptr @Ndim, align 2, !tbaa !3
  %59 = zext i16 %58 to i32
  %60 = getelementptr inbounds nuw i8, ptr %1, i64 16
  %61 = load i32, ptr %60, align 8, !tbaa !63
  %62 = getelementptr inbounds nuw i8, ptr %1, i64 24
  %63 = load double, ptr %62, align 8, !tbaa !64
  %64 = tail call ptr @agget(ptr noundef %0, ptr noundef nonnull @.str.49) #20
  %65 = tail call zeroext i1 @mapBool(ptr noundef %64, i1 noundef zeroext true) #20
  tail call void @remove_overlap(i32 noundef %59, ptr noundef %.044, ptr noundef %22, ptr noundef %31, i32 noundef %61, double noundef %63, i32 noundef 0, i32 noundef 0, ptr noundef null, ptr noundef null, i1 noundef zeroext %65) #20
  %66 = tail call ptr @agfstnode(ptr noundef %0) #20
  %.not4960 = icmp eq ptr %66, null
  br i1 %.not4960, label %._crit_edge64, label %.lr.ph63

._crit_edge64:                                    ; preds = %._crit_edge59, %57
  tail call void @free(ptr noundef %31) #20
  tail call void @free(ptr noundef %22) #20
  %.not50 = icmp eq ptr %.044, %4
  br i1 %.not50, label %84, label %83

.lr.ph63:                                         ; preds = %57, %._crit_edge59
  %.04561 = phi ptr [ %78, %._crit_edge59 ], [ %66, %57 ]
  %67 = load i16, ptr @Ndim, align 2, !tbaa !3
  %68 = zext i16 %67 to i32
  %69 = getelementptr inbounds nuw i8, ptr %.04561, i64 16
  %70 = load ptr, ptr %69, align 8, !tbaa !10
  %71 = getelementptr inbounds nuw i8, ptr %70, i64 164
  %72 = load i32, ptr %71, align 4, !tbaa !16
  %73 = mul nsw i32 %72, %68
  %74 = sext i32 %73 to i64
  %75 = getelementptr inbounds double, ptr %22, i64 %74
  %.not66 = icmp eq i16 %67, 0
  br i1 %.not66, label %._crit_edge59, label %.lr.ph58

.lr.ph58:                                         ; preds = %.lr.ph63
  %76 = getelementptr inbounds nuw i8, ptr %70, i64 176
  %77 = load ptr, ptr %76, align 8, !tbaa !52
  %wide.trip.count71 = zext i16 %67 to i64
  br label %79

._crit_edge59:                                    ; preds = %79, %.lr.ph63
  %78 = tail call ptr @agnxtnode(ptr noundef %0, ptr noundef nonnull %.04561) #20
  %.not49 = icmp eq ptr %78, null
  br i1 %.not49, label %._crit_edge64, label %.lr.ph63, !llvm.loop !127

79:                                               ; preds = %.lr.ph58, %79
  %indvars.iv68 = phi i64 [ 0, %.lr.ph58 ], [ %indvars.iv.next69, %79 ]
  %80 = getelementptr inbounds nuw double, ptr %75, i64 %indvars.iv68
  %81 = load double, ptr %80, align 8, !tbaa !33
  %82 = getelementptr inbounds nuw double, ptr %77, i64 %indvars.iv68
  store double %81, ptr %82, align 8, !tbaa !33
  %indvars.iv.next69 = add nuw nsw i64 %indvars.iv68, 1
  %exitcond72.not = icmp eq i64 %indvars.iv.next69, %wide.trip.count71
  br i1 %exitcond72.not, label %._crit_edge59, label %79, !llvm.loop !128

83:                                               ; preds = %._crit_edge64
  tail call void @SparseMatrix_delete(ptr noundef %.044) #20
  br label %84

84:                                               ; preds = %83, %._crit_edge64
  tail call void @SparseMatrix_delete(ptr noundef %4) #20
  call void @llvm.lifetime.end.p0(i64 24, ptr nonnull %3) #20
  ret void
}